ccopy_reg
_reconstructor
p0
(csklearn.pipeline
Pipeline
p1
c__builtin__
object
p2
Ntp3
Rp4
(dp5
S'steps'
p6
(lp7
(S'minmaxscaler'
p8
g0
(csklearn.preprocessing.data
MinMaxScaler
p9
g2
Ntp10
Rp11
(dp12
S'copy'
p13
I01
sS'feature_range'
p14
(I0
I1
tp15
sbtp16
a(S'adaboostclassifier'
p17
g0
(csklearn.ensemble.weight_boosting
AdaBoostClassifier
p18
g2
Ntp19
Rp20
(dp21
S'base_estimator'
p22
NsS'estimators_'
p23
(lp24
sS'algorithm'
p25
S'SAMME.R'
p26
sS'learning_rate'
p27
F0.4
sS'n_estimators'
p28
I25
sS'random_state'
p29
I42
sS'estimator_params'
p30
(tsbtp31
asb.